target datalayout = "e-m:e-p270:32:32-p271:32:32-p272:64:64-i64:64-i128:128-f80:128-n8:16:32:64-S128"
target triple = "x86_64-pc-linux-gnu"

%"class.llvm::ArrayRef" = type { ptr, i64 }
%"class.llvm::MD5" = type { %struct.anon }
%struct.anon = type { i32, i32, i32, i32, i32, i32, [64 x i8], [16 x i32] }
%"struct.std::array" = type { [16 x i8] }
%"struct.llvm::MD5::MD5Result" = type { %"struct.std::array" }
%"struct.llvm::support::detail::packed_endian_specific_integral" = type { %struct.anon.0 }
%struct.anon.0 = type { [4 x i8] }

; Function Attrs: mustprogress nounwind uwtable
define linkonce_odr hidden noundef i32 @_ZN4llvm8byteswapIjvEET_S1_(i32 noundef %0) #0 comdat {
  %2 = alloca i32, align 4
  %3 = alloca i32, align 4
  store i32 %0, ptr %2, align 4
  %4 = load i32, ptr %2, align 4
  store i32 %4, ptr %3, align 4
  %5 = load i32, ptr %3, align 4
  %6 = call i32 @llvm.bswap.i32(i32 %5)
  ret i32 %6
}

; Function Attrs: mustprogress nounwind uwtable
define linkonce_odr hidden noundef i32 @_ZN4llvm3sys15getSwappedBytesEj(i32 noundef %0) #0 comdat {
  %2 = alloca i32, align 4
  store i32 %0, ptr %2, align 4
  %3 = load i32, ptr %2, align 4
  %4 = call noundef i32 @_ZN4llvm8byteswapIjvEET_S1_(i32 noundef %3) #7
  ret i32 %4
}

; Function Attrs: mustprogress nounwind uwtable
define linkonce_odr hidden void @_ZN4llvm3sys13swapByteOrderIjEEvRT_(ptr noundef nonnull align 4 dereferenceable(4) %0) #0 comdat {
  %2 = alloca ptr, align 8
  store ptr %0, ptr %2, align 8
  %3 = load ptr, ptr %2, align 8
  %4 = load i32, ptr %3, align 4
  %5 = call noundef i32 @_ZN4llvm3sys15getSwappedBytesEj(i32 noundef %4)
  %6 = load ptr, ptr %2, align 8
  store i32 %5, ptr %6, align 4
  ret void
}

; Function Attrs: mustprogress nounwind uwtable
define linkonce_odr hidden noundef i32 @_ZN4llvm7support6endian9byte_swapIjEET_S3_NS_10endiannessE(i32 noundef %0, i32 noundef %1) #0 comdat {
  %3 = alloca i32, align 4
  %4 = alloca i32, align 4
  store i32 %0, ptr %3, align 4
  store i32 %1, ptr %4, align 4
  %5 = load i32, ptr %4, align 4
  %6 = icmp ne i32 %5, 1
  br i1 %6, label %7, label %8

7:                                                ; preds = %2
  call void @_ZN4llvm3sys13swapByteOrderIjEEvRT_(ptr noundef nonnull align 4 dereferenceable(4) %3)
  br label %8

8:                                                ; preds = %7, %2
  %9 = load i32, ptr %3, align 4
  ret i32 %9
}

; Function Attrs: mustprogress nounwind uwtable
define linkonce_odr hidden void @_ZN4llvm7support6endian5writeIjLm1EEEvPvT_NS_10endiannessE(ptr noundef %0, i32 noundef %1, i32 noundef %2) #0 comdat {
  %4 = alloca ptr, align 8
  %5 = alloca i32, align 4
  %6 = alloca i32, align 4
  store ptr %0, ptr %4, align 8
  store i32 %1, ptr %5, align 4
  store i32 %2, ptr %6, align 4
  %7 = load i32, ptr %5, align 4
  %8 = load i32, ptr %6, align 4
  %9 = call noundef i32 @_ZN4llvm7support6endian9byte_swapIjEET_S3_NS_10endiannessE(i32 noundef %7, i32 noundef %8)
  store i32 %9, ptr %5, align 4
  %10 = load ptr, ptr %4, align 8
  call void @llvm.assume(i1 true) [ "align"(ptr %10, i64 1) ]
  call void @llvm.memcpy.p0.p0.i64(ptr align 1 %10, ptr align 4 %5, i64 4, i1 false)
  ret void
}

; Function Attrs: mustprogress nounwind uwtable
define linkonce_odr hidden void @_ZN4llvm7support6endian5writeIjLNS_10endiannessE1ELm1EEEvPvT_(ptr noundef %0, i32 noundef %1) #0 comdat {
  %3 = alloca ptr, align 8
  %4 = alloca i32, align 4
  store ptr %0, ptr %3, align 8
  store i32 %1, ptr %4, align 4
  %5 = load ptr, ptr %3, align 8
  %6 = load i32, ptr %4, align 4
  call void @_ZN4llvm7support6endian5writeIjLm1EEEvPvT_NS_10endiannessE(ptr noundef %5, i32 noundef %6, i32 noundef 1)
  ret void
}

; Function Attrs: mustprogress nounwind uwtable
define linkonce_odr hidden void @_ZN4llvm7support6detail31packed_endian_specific_integralIjLNS_10endiannessE1ELm1ELm1EEaSEj(ptr noundef nonnull align 1 dereferenceable(4) %0, i32 noundef %1) #0 comdat align 2 {
  %3 = alloca ptr, align 8
  %4 = alloca i32, align 4
  store ptr %0, ptr %3, align 8
  store i32 %1, ptr %4, align 4
  %5 = load ptr, ptr %3, align 8
  %6 = getelementptr inbounds nuw %"struct.llvm::support::detail::packed_endian_specific_integral", ptr %5, i32 0, i32 0
  %7 = getelementptr inbounds nuw %struct.anon.0, ptr %6, i32 0, i32 0
  %8 = getelementptr inbounds [4 x i8], ptr %7, i64 0, i64 0
  %9 = load i32, ptr %4, align 4
  call void @_ZN4llvm7support6endian5writeIjLNS_10endiannessE1ELm1EEEvPvT_(ptr noundef %8, i32 noundef %9)
  ret void
}

; Function Attrs: mustprogress nounwind uwtable
define linkonce_odr hidden void @_ZN4llvm7support6endian5writeIjLNS_10endiannessE1EEEvPvT_(ptr noundef %0, i32 noundef %1) #0 comdat {
  %3 = alloca ptr, align 8
  %4 = alloca i32, align 4
  store ptr %0, ptr %3, align 8
  store i32 %1, ptr %4, align 4
  %5 = load i32, ptr %4, align 4
  %6 = load ptr, ptr %3, align 8
  call void @_ZN4llvm7support6detail31packed_endian_specific_integralIjLNS_10endiannessE1ELm1ELm1EEaSEj(ptr noundef nonnull align 1 dereferenceable(4) %6, i32 noundef %5)
  ret void
}

; Function Attrs: mustprogress nounwind uwtable
define linkonce_odr hidden noundef nonnull align 1 dereferenceable(1) ptr @_ZNSt14__array_traitsIhLm16EE6_S_refERA16_Khm(ptr noundef nonnull align 1 dereferenceable(16) %0, i64 noundef %1) #0 comdat align 2 {
  %3 = alloca ptr, align 8
  %4 = alloca i64, align 8
  store ptr %0, ptr %3, align 8
  store i64 %1, ptr %4, align 8
  %5 = load ptr, ptr %3, align 8
  %6 = load i64, ptr %4, align 8
  %7 = getelementptr inbounds [16 x i8], ptr %5, i64 0, i64 %6
  ret ptr %7
}

; Function Attrs: mustprogress nounwind uwtable
define linkonce_odr hidden void @_ZN4llvm7support6endian7write32ILNS_10endiannessE1EEEvPvj(ptr noundef %0, i32 noundef %1) #0 comdat {
  %3 = alloca ptr, align 8
  %4 = alloca i32, align 4
  store ptr %0, ptr %3, align 8
  store i32 %1, ptr %4, align 4
  %5 = load ptr, ptr %3, align 8
  %6 = load i32, ptr %4, align 4
  call void @_ZN4llvm7support6endian5writeIjLNS_10endiannessE1EEEvPvT_(ptr noundef %5, i32 noundef %6)
  ret void
}

; Function Attrs: mustprogress nounwind uwtable
define linkonce_odr hidden noundef nonnull align 1 dereferenceable(1) ptr @_ZNSt5arrayIhLm16EEixEm(ptr noundef nonnull align 1 dereferenceable(16) %0, i64 noundef %1) #0 comdat align 2 {
  %3 = alloca ptr, align 8
  %4 = alloca i64, align 8
  store ptr %0, ptr %3, align 8
  store i64 %1, ptr %4, align 8
  %5 = load ptr, ptr %3, align 8
  %6 = getelementptr inbounds nuw %"struct.std::array", ptr %5, i32 0, i32 0
  %7 = load i64, ptr %4, align 8
  %8 = call noundef nonnull align 1 dereferenceable(1) ptr @_ZNSt14__array_traitsIhLm16EE6_S_refERA16_Khm(ptr noundef nonnull align 1 dereferenceable(16) %6, i64 noundef %7) #7
  ret ptr %8
}

; Function Attrs: mustprogress nounwind uwtable
define linkonce_odr hidden void @_ZN4llvm7support6endian9write32leEPvj(ptr noundef %0, i32 noundef %1) #0 comdat {
  %3 = alloca ptr, align 8
  %4 = alloca i32, align 4
  store ptr %0, ptr %3, align 8
  store i32 %1, ptr %4, align 4
  %5 = load ptr, ptr %3, align 8
  %6 = load i32, ptr %4, align 4
  call void @_ZN4llvm7support6endian7write32ILNS_10endiannessE1EEEvPvj(ptr noundef %5, i32 noundef %6)
  ret void
}

; Function Attrs: mustprogress nounwind uwtable
define linkonce_odr hidden void @_ZN4llvm8ArrayRefIhEC2EPKhm(ptr noundef nonnull align 8 dereferenceable(16) %0, ptr noundef %1, i64 noundef %2) unnamed_addr #0 comdat align 2 {
  %4 = alloca ptr, align 8
  %5 = alloca ptr, align 8
  %6 = alloca i64, align 8
  store ptr %0, ptr %4, align 8
  store ptr %1, ptr %5, align 8
  store i64 %2, ptr %6, align 8
  %7 = load ptr, ptr %4, align 8
  %8 = getelementptr inbounds nuw %"class.llvm::ArrayRef", ptr %7, i32 0, i32 0
  %9 = load ptr, ptr %5, align 8
  store ptr %9, ptr %8, align 8
  %10 = getelementptr inbounds nuw %"class.llvm::ArrayRef", ptr %7, i32 0, i32 1
  %11 = load i64, ptr %6, align 8
  store i64 %11, ptr %10, align 8
  ret void
}

; Function Attrs: mustprogress nounwind uwtable
define dso_local void @_ZN4llvm3MD55finalERNS0_9MD5ResultE(ptr noundef nonnull align 4 dereferenceable(152) %0, ptr noundef nonnull align 1 dereferenceable(16) %1) #0 align 2 {
  %3 = alloca ptr, align 8
  %4 = alloca ptr, align 8
  %5 = alloca i64, align 8
  %6 = alloca i64, align 8
  %7 = alloca %"class.llvm::ArrayRef", align 8
  %8 = alloca %"class.llvm::ArrayRef", align 8
  store ptr %0, ptr %3, align 8
  store ptr %1, ptr %4, align 8
  %9 = load ptr, ptr %3, align 8
  %10 = getelementptr inbounds nuw %"class.llvm::MD5", ptr %9, i32 0, i32 0
  %11 = getelementptr inbounds nuw %struct.anon, ptr %10, i32 0, i32 5
  %12 = load i32, ptr %11, align 4
  %13 = and i32 %12, 63
  %14 = zext i32 %13 to i64
  store i64 %14, ptr %5, align 8
  %15 = getelementptr inbounds nuw %"class.llvm::MD5", ptr %9, i32 0, i32 0
  %16 = getelementptr inbounds nuw %struct.anon, ptr %15, i32 0, i32 6
  %17 = load i64, ptr %5, align 8
  %18 = add i64 %17, 1
  store i64 %18, ptr %5, align 8
  %19 = getelementptr inbounds [64 x i8], ptr %16, i64 0, i64 %17
  store i8 -128, ptr %19, align 1
  %20 = load i64, ptr %5, align 8
  %21 = sub i64 64, %20
  store i64 %21, ptr %6, align 8
  %22 = load i64, ptr %6, align 8
  %23 = icmp ult i64 %22, 8
  br i1 %23, label %24, label %38

24:                                               ; preds = %2
  %25 = getelementptr inbounds nuw %"class.llvm::MD5", ptr %9, i32 0, i32 0
  %26 = getelementptr inbounds nuw %struct.anon, ptr %25, i32 0, i32 6
  %27 = load i64, ptr %5, align 8
  %28 = getelementptr inbounds [64 x i8], ptr %26, i64 0, i64 %27
  %29 = load i64, ptr %6, align 8
  call void @llvm.memset.p0.i64(ptr align 1 %28, i8 0, i64 %29, i1 false)
  %30 = getelementptr inbounds nuw %"class.llvm::MD5", ptr %9, i32 0, i32 0
  %31 = getelementptr inbounds nuw %struct.anon, ptr %30, i32 0, i32 6
  %32 = getelementptr inbounds [64 x i8], ptr %31, i64 0, i64 0
  call void @_ZN4llvm8ArrayRefIhEC2EPKhm(ptr noundef nonnull align 8 dereferenceable(16) %7, ptr noundef %32, i64 noundef 64)
  %33 = getelementptr inbounds nuw { ptr, i64 }, ptr %7, i32 0, i32 0
  %34 = load ptr, ptr %33, align 8
  %35 = getelementptr inbounds nuw { ptr, i64 }, ptr %7, i32 0, i32 1
  %36 = load i64, ptr %35, align 8
  %37 = call noundef ptr @_ZN4llvm3MD54bodyENS_8ArrayRefIhEE(ptr noundef nonnull align 4 dereferenceable(152) %9, ptr %34, i64 %36)
  store i64 0, ptr %5, align 8
  store i64 64, ptr %6, align 8
  br label %38

38:                                               ; preds = %24, %2
  %39 = getelementptr inbounds nuw %"class.llvm::MD5", ptr %9, i32 0, i32 0
  %40 = getelementptr inbounds nuw %struct.anon, ptr %39, i32 0, i32 6
  %41 = load i64, ptr %5, align 8
  %42 = getelementptr inbounds [64 x i8], ptr %40, i64 0, i64 %41
  %43 = load i64, ptr %6, align 8
  %44 = sub i64 %43, 8
  call void @llvm.memset.p0.i64(ptr align 1 %42, i8 0, i64 %44, i1 false)
  %45 = getelementptr inbounds nuw %"class.llvm::MD5", ptr %9, i32 0, i32 0
  %46 = getelementptr inbounds nuw %struct.anon, ptr %45, i32 0, i32 5
  %47 = load i32, ptr %46, align 4
  %48 = shl i32 %47, 3
  store i32 %48, ptr %46, align 4
  %49 = getelementptr inbounds nuw %"class.llvm::MD5", ptr %9, i32 0, i32 0
  %50 = getelementptr inbounds nuw %struct.anon, ptr %49, i32 0, i32 6
  %51 = getelementptr inbounds [64 x i8], ptr %50, i64 0, i64 56
  %52 = getelementptr inbounds nuw %"class.llvm::MD5", ptr %9, i32 0, i32 0
  %53 = getelementptr inbounds nuw %struct.anon, ptr %52, i32 0, i32 5
  %54 = load i32, ptr %53, align 4
  call void @_ZN4llvm7support6endian9write32leEPvj(ptr noundef %51, i32 noundef %54)
  %55 = getelementptr inbounds nuw %"class.llvm::MD5", ptr %9, i32 0, i32 0
  %56 = getelementptr inbounds nuw %struct.anon, ptr %55, i32 0, i32 6
  %57 = getelementptr inbounds [64 x i8], ptr %56, i64 0, i64 60
  %58 = getelementptr inbounds nuw %"class.llvm::MD5", ptr %9, i32 0, i32 0
  %59 = getelementptr inbounds nuw %struct.anon, ptr %58, i32 0, i32 4
  %60 = load i32, ptr %59, align 4
  call void @_ZN4llvm7support6endian9write32leEPvj(ptr noundef %57, i32 noundef %60)
  %61 = getelementptr inbounds nuw %"class.llvm::MD5", ptr %9, i32 0, i32 0
  %62 = getelementptr inbounds nuw %struct.anon, ptr %61, i32 0, i32 6
  %63 = getelementptr inbounds [64 x i8], ptr %62, i64 0, i64 0
  call void @_ZN4llvm8ArrayRefIhEC2EPKhm(ptr noundef nonnull align 8 dereferenceable(16) %8, ptr noundef %63, i64 noundef 64)
  %64 = getelementptr inbounds nuw { ptr, i64 }, ptr %8, i32 0, i32 0
  %65 = load ptr, ptr %64, align 8
  %66 = getelementptr inbounds nuw { ptr, i64 }, ptr %8, i32 0, i32 1
  %67 = load i64, ptr %66, align 8
  %68 = call noundef ptr @_ZN4llvm3MD54bodyENS_8ArrayRefIhEE(ptr noundef nonnull align 4 dereferenceable(152) %9, ptr %65, i64 %67)
  %69 = load ptr, ptr %4, align 8
  %70 = call noundef nonnull align 1 dereferenceable(1) ptr @_ZNSt5arrayIhLm16EEixEm(ptr noundef nonnull align 1 dereferenceable(16) %69, i64 noundef 0) #7
  %71 = getelementptr inbounds nuw %"class.llvm::MD5", ptr %9, i32 0, i32 0
  %72 = getelementptr inbounds nuw %struct.anon, ptr %71, i32 0, i32 0
  %73 = load i32, ptr %72, align 4
  call void @_ZN4llvm7support6endian9write32leEPvj(ptr noundef %70, i32 noundef %73)
  %74 = load ptr, ptr %4, align 8
  %75 = call noundef nonnull align 1 dereferenceable(1) ptr @_ZNSt5arrayIhLm16EEixEm(ptr noundef nonnull align 1 dereferenceable(16) %74, i64 noundef 4) #7
  %76 = getelementptr inbounds nuw %"class.llvm::MD5", ptr %9, i32 0, i32 0
  %77 = getelementptr inbounds nuw %struct.anon, ptr %76, i32 0, i32 1
  %78 = load i32, ptr %77, align 4
  call void @_ZN4llvm7support6endian9write32leEPvj(ptr noundef %75, i32 noundef %78)
  %79 = load ptr, ptr %4, align 8
  %80 = call noundef nonnull align 1 dereferenceable(1) ptr @_ZNSt5arrayIhLm16EEixEm(ptr noundef nonnull align 1 dereferenceable(16) %79, i64 noundef 8) #7
  %81 = getelementptr inbounds nuw %"class.llvm::MD5", ptr %9, i32 0, i32 0
  %82 = getelementptr inbounds nuw %struct.anon, ptr %81, i32 0, i32 2
  %83 = load i32, ptr %82, align 4
  call void @_ZN4llvm7support6endian9write32leEPvj(ptr noundef %80, i32 noundef %83)
  %84 = load ptr, ptr %4, align 8
  %85 = call noundef nonnull align 1 dereferenceable(1) ptr @_ZNSt5arrayIhLm16EEixEm(ptr noundef nonnull align 1 dereferenceable(16) %84, i64 noundef 12) #7
  %86 = getelementptr inbounds nuw %"class.llvm::MD5", ptr %9, i32 0, i32 0
  %87 = getelementptr inbounds nuw %struct.anon, ptr %86, i32 0, i32 3
  %88 = load i32, ptr %87, align 4
  call void @_ZN4llvm7support6endian9write32leEPvj(ptr noundef %85, i32 noundef %88)
  ret void
}

; Function Attrs: mustprogress nounwind uwtable
define dso_local { i64, i64 } @_ZN4llvm3MD55finalEv(ptr noundef nonnull align 4 dereferenceable(152) %0) #0 align 2 {
  %2 = alloca %"struct.llvm::MD5::MD5Result", align 1
  %3 = alloca ptr, align 8
  store ptr %0, ptr %3, align 8
  %4 = load ptr, ptr %3, align 8
  call void @_ZN4llvm3MD55finalERNS0_9MD5ResultE(ptr noundef nonnull align 4 dereferenceable(152) %4, ptr noundef nonnull align 1 dereferenceable(16) %2)
  %5 = getelementptr inbounds nuw %"struct.llvm::MD5::MD5Result", ptr %2, i32 0, i32 0
  %6 = getelementptr inbounds nuw %"struct.std::array", ptr %5, i32 0, i32 0
  %7 = load { i64, i64 }, ptr %6, align 1
  ret { i64, i64 } %7
}

; Function Attrs: mustprogress nounwind uwtable
define dso_local { i64, i64 } @_ZN4llvm3MD56resultEv(ptr noundef nonnull align 4 dereferenceable(152) %0) #0 align 2 {
  %2 = alloca %"struct.llvm::MD5::MD5Result", align 1
  %3 = alloca ptr, align 8
  %4 = alloca %struct.anon, align 4
  store ptr %0, ptr %3, align 8
  %5 = load ptr, ptr %3, align 8
  %6 = getelementptr inbounds nuw %"class.llvm::MD5", ptr %5, i32 0, i32 0
  call void @llvm.memcpy.p0.p0.i64(ptr align 4 %4, ptr align 4 %6, i64 152, i1 false)
  %7 = call { i64, i64 } @_ZN4llvm3MD55finalEv(ptr noundef nonnull align 4 dereferenceable(152) %5)
  %8 = getelementptr inbounds nuw %"struct.llvm::MD5::MD5Result", ptr %2, i32 0, i32 0
  %9 = getelementptr inbounds nuw %"struct.std::array", ptr %8, i32 0, i32 0
  %10 = getelementptr inbounds nuw { i64, i64 }, ptr %9, i32 0, i32 0
  %11 = extractvalue { i64, i64 } %7, 0
  store i64 %11, ptr %10, align 1
  %12 = getelementptr inbounds nuw { i64, i64 }, ptr %9, i32 0, i32 1
  %13 = extractvalue { i64, i64 } %7, 1
  store i64 %13, ptr %12, align 1
  %14 = getelementptr inbounds nuw %"class.llvm::MD5", ptr %5, i32 0, i32 0
  call void @llvm.memcpy.p0.p0.i64(ptr align 4 %14, ptr align 4 %4, i64 152, i1 false)
  %15 = getelementptr inbounds nuw %"struct.llvm::MD5::MD5Result", ptr %2, i32 0, i32 0
  %16 = getelementptr inbounds nuw %"struct.std::array", ptr %15, i32 0, i32 0
  %17 = load { i64, i64 }, ptr %16, align 1
  ret { i64, i64 } %17
}