; Function Attrs: mustprogress nofree norecurse nosync nounwind memory(argmem: readwrite, inaccessiblemem: write) uwtable
define dso_local { i64, i64 } @_ZN4llvm3MD56resultEv(ptr noundef nonnull align 4 dereferenceable(152) %0) local_unnamed_addr #4 align 2 {
  %2 = alloca %struct.anon, align 4
  call void @llvm.memcpy.p0.p0.i64(ptr noundef nonnull align 4 dereferenceable(152) %2, ptr noundef nonnull align 4 dereferenceable(152) %0, i64 152, i1 false)
  %3 = getelementptr inbounds nuw i8, ptr %0, i64 20
  %4 = load i32, ptr %3, align 4
  %5 = and i32 %4, 63
  %6 = zext nneg i32 %5 to i64
  %7 = getelementptr inbounds nuw i8, ptr %0, i64 24
  %8 = add nuw nsw i64 %6, 1
  %9 = getelementptr inbounds nuw [64 x i8], ptr %7, i64 0, i64 %6
  store i8 -128, ptr %9, align 1
  %10 = xor i64 %6, 63
  %11 = icmp samesign ult i64 %10, 8
  br i1 %11, label %12, label %_ZN4llvm3MD55finalEv.exit

12:                                               ; preds = %1
  %13 = getelementptr inbounds nuw [64 x i8], ptr %7, i64 0, i64 %8
  tail call void @llvm.memset.p0.i64(ptr nonnull align 1 %13, i8 0, i64 %10, i1 false)
  %14 = tail call noundef ptr @_ZN4llvm3MD54bodyENS_8ArrayRefIhEE(ptr noundef nonnull align 4 dereferenceable(152) %0, ptr nonnull %7, i64 64)
  %.pre.i.i = load i32, ptr %3, align 4
  br label %_ZN4llvm3MD55finalEv.exit

_ZN4llvm3MD55finalEv.exit:                        ; preds = %1, %12
  %15 = phi i32 [ %.pre.i.i, %12 ], [ %4, %1 ]
  %.011.i.i = phi i64 [ 0, %12 ], [ %8, %1 ]
  %.0.i.i = phi i64 [ 64, %12 ], [ %10, %1 ]
  %16 = getelementptr inbounds nuw [64 x i8], ptr %7, i64 0, i64 %.011.i.i
  %17 = add nsw i64 %.0.i.i, -8
  tail call void @llvm.memset.p0.i64(ptr nonnull align 1 %16, i8 0, i64 %17, i1 false)
  %18 = shl i32 %15, 3
  store i32 %18, ptr %3, align 4
  %19 = getelementptr inbounds nuw i8, ptr %0, i64 80
  call void @llvm.assume(i1 true) [ "align"(ptr %19, i64 1) ]
  store i32 %18, ptr %19, align 4
  %20 = getelementptr inbounds nuw i8, ptr %0, i64 84
  %21 = getelementptr inbounds nuw i8, ptr %0, i64 16
  %22 = load i32, ptr %21, align 4
  call void @llvm.assume(i1 true) [ "align"(ptr %20, i64 1) ]
  store i32 %22, ptr %20, align 4
  %23 = tail call noundef ptr @_ZN4llvm3MD54bodyENS_8ArrayRefIhEE(ptr noundef nonnull align 4 dereferenceable(152) %0, ptr nonnull %7, i64 64)
  %24 = load i64, ptr %0, align 4
  %25 = getelementptr inbounds nuw i8, ptr %0, i64 8
  %26 = load i64, ptr %25, align 4
  %.fca.0.insert.i = insertvalue { i64, i64 } poison, i64 %24, 0
  %.fca.1.insert.i = insertvalue { i64, i64 } %.fca.0.insert.i, i64 %26, 1
  call void @llvm.memcpy.p0.p0.i64(ptr noundef nonnull align 4 dereferenceable(152) %0, ptr noundef nonnull align 4 dereferenceable(152) %2, i64 152, i1 false)
  ret { i64, i64 } %.fca.1.insert.i
}